; Function Attrs: mustprogress nounwind uwtable
define hidden void @_ZN22NativeLibraryLoadEventC2EPKcPPv(ptr nocapture noundef nonnull writeonly align 8 dereferenceable(34) %0, ptr noundef %1, ptr noundef %2) unnamed_addr #1 align 2 {
  store ptr %1, ptr %0, align 8
  %4 = getelementptr inbounds i8, ptr %0, i64 8
  tail call void @llvm.memset.p0.i64(ptr noundef nonnull align 8 dereferenceable(16) %4, i8 0, i64 16, i1 false)
  %5 = getelementptr inbounds i8, ptr %0, i64 24
  store ptr %2, ptr %5, align 8
  %6 = getelementptr inbounds i8, ptr %0, i64 32
  store i8 0, ptr %6, align 8
  %7 = getelementptr inbounds i8, ptr %0, i64 33
  store i8 0, ptr %7, align 1
  %8 = load i8, ptr getelementptr inbounds (i8, ptr @_ZN15JfrEventSetting19_jvm_event_settingsE, i64 2945), align 1
  %.not.i = icmp eq i8 %8, 0
  br i1 %.not.i, label %_ZL19allocate_start_timeI22EventNativeLibraryLoadEP15JfrTicksWrapperv.exit, label %9

9:                                                ; preds = %3
  %10 = tail call noundef ptr @_ZN11JfrCHeapObjnwEm(i64 noundef 8) #13
  %11 = icmp eq ptr %10, null
  br i1 %11, label %_ZL19allocate_start_timeI22EventNativeLibraryLoadEP15JfrTicksWrapperv.exit, label %12

12:                                               ; preds = %9
  %13 = tail call noundef i64 @_ZN33FastUnorderedElapsedCounterSource3nowEv() #13
  store i64 %13, ptr %10, align 8
  br label %_ZL19allocate_start_timeI22EventNativeLibraryLoadEP15JfrTicksWrapperv.exit

_ZL19allocate_start_timeI22EventNativeLibraryLoadEP15JfrTicksWrapperv.exit: ; preds = %3, %9, %12
  %14 = phi ptr [ %10, %12 ], [ null, %9 ], [ null, %3 ]
  %15 = getelementptr inbounds i8, ptr %0, i64 16
  store ptr %14, ptr %15, align 8
  ret void
}